target datalayout = "e-m:e-p270:32:32-p271:32:32-p272:64:64-i64:64-i128:128-f80:128-n8:16:32:64-S128"
target triple = "x86_64-pc-linux-gnu"

%struct.strvec = type { ptr, i64, i64 }
%struct.anon.10 = type { %struct.contains_cache, %struct.contains_cache }
%struct.contains_cache = type { i32, i32, i32, ptr }
%struct.ref_filter = type { ptr, %struct.strvec, %struct.oid_array, ptr, ptr, ptr, ptr, i8, i32, i32, i32, i32, %struct.anon.10 }
%struct.oid_array = type { ptr, i64, i64, i32 }

; Function Attrs: nounwind uwtable
define dso_local void @ref_filter_init(ptr noundef %0) #0 {
  %2 = alloca ptr, align 8
  %3 = alloca %struct.ref_filter, align 8
  store ptr %0, ptr %2, align 8, !tbaa !113
  call void @llvm.lifetime.start.p0(i64 168, ptr %3) #11
  call void @llvm.memcpy.p0.p0.i64(ptr align 8 %3, ptr align 8 @__const.ref_filter_init.blank, i64 168, i1 false)
  %4 = load ptr, ptr %2, align 8, !tbaa !113
  call void @llvm.memcpy.p0.p0.i64(ptr align 8 %4, ptr align 8 %3, i64 168, i1 false)
  call void @llvm.lifetime.end.p0(i64 168, ptr %3) #11
  ret void
}

; Function Attrs: nounwind uwtable
define dso_local void @ref_filter_clear(ptr noundef %0) #0 {
  %2 = alloca ptr, align 8
  store ptr %0, ptr %2, align 8, !tbaa !113
  %3 = load ptr, ptr %2, align 8, !tbaa !113
  %4 = getelementptr inbounds nuw %struct.ref_filter, ptr %3, i32 0, i32 1
  call void @strvec_clear(ptr noundef %4)
  %5 = load ptr, ptr %2, align 8, !tbaa !113
  %6 = getelementptr inbounds nuw %struct.ref_filter, ptr %5, i32 0, i32 2
  call void @oid_array_clear(ptr noundef %6)
  %7 = load ptr, ptr %2, align 8, !tbaa !113
  %8 = getelementptr inbounds nuw %struct.ref_filter, ptr %7, i32 0, i32 3
  %9 = load ptr, ptr %8, align 8, !tbaa !200
  call void @free_commit_list(ptr noundef %9)
  %10 = load ptr, ptr %2, align 8, !tbaa !113
  %11 = getelementptr inbounds nuw %struct.ref_filter, ptr %10, i32 0, i32 4
  %12 = load ptr, ptr %11, align 8, !tbaa !201
  call void @free_commit_list(ptr noundef %12)
  %13 = load ptr, ptr %2, align 8, !tbaa !113
  %14 = getelementptr inbounds nuw %struct.ref_filter, ptr %13, i32 0, i32 5
  %15 = load ptr, ptr %14, align 8, !tbaa !145
  call void @free_commit_list(ptr noundef %15)
  %16 = load ptr, ptr %2, align 8, !tbaa !113
  %17 = getelementptr inbounds nuw %struct.ref_filter, ptr %16, i32 0, i32 6
  %18 = load ptr, ptr %17, align 8, !tbaa !146
  call void @free_commit_list(ptr noundef %18)
  %19 = load ptr, ptr %2, align 8, !tbaa !113
  call void @ref_filter_init(ptr noundef %19)
  ret void
}