; Function Attrs: nounwind uwtable
define dso_local void @ref_filter_clear(ptr noundef %0) local_unnamed_addr #0 {
  %2 = getelementptr inbounds nuw i8, ptr %0, i64 8
  tail call void @strvec_clear(ptr noundef nonnull %2) #23
  %3 = getelementptr inbounds nuw i8, ptr %0, i64 32
  tail call void @oid_array_clear(ptr noundef nonnull %3) #23
  %4 = getelementptr inbounds nuw i8, ptr %0, i64 64
  %5 = load ptr, ptr %4, align 8, !tbaa !200
  tail call void @free_commit_list(ptr noundef %5) #23
  %6 = getelementptr inbounds nuw i8, ptr %0, i64 72
  %7 = load ptr, ptr %6, align 8, !tbaa !201
  tail call void @free_commit_list(ptr noundef %7) #23
  %8 = getelementptr inbounds nuw i8, ptr %0, i64 80
  %9 = load ptr, ptr %8, align 8, !tbaa !130
  tail call void @free_commit_list(ptr noundef %9) #23
  %10 = getelementptr inbounds nuw i8, ptr %0, i64 88
  %11 = load ptr, ptr %10, align 8, !tbaa !131
  tail call void @free_commit_list(ptr noundef %11) #23
  tail call void @llvm.memcpy.p0.p0.i64(ptr noundef nonnull align 8 dereferenceable(168) %0, ptr noundef nonnull align 8 dereferenceable(168) @__const.ref_filter_init.blank, i64 168, i1 false)
  ret void
}